	.section	__TEXT,__text,regular,pure_instructions
	.macosx_version_min 10, 11
	.section	__TEXT,__text,regular,pure_instructions
	.globl	_main
	.align	4, 0x90
_main:                                  ## @main
Lfunc_begin0:
	.file	1 "test1.c"
	.loc	1 9 0                   ## test1.c:9:0
	.cfi_startproc
## BB#0:                                ## %entry
	pushq	%rbp
Ltmp0:
	.cfi_def_cfa_offset 16
Ltmp1:
	.cfi_offset %rbp, -16
	movq	%rsp, %rbp
Ltmp2:
	.cfi_def_cfa_register %rbp
	.loc	1 10 2 prologue_end     ## test1.c:10:2
Ltmp3:
	callq	_func1
	.loc	1 11 2                  ## test1.c:11:2
	callq	_func3
	.loc	1 12 2                  ## test1.c:12:2
	callq	_func5
	.loc	1 13 2                  ## test1.c:13:2
	leaq	L_.str(%rip), %rdi
	leaq	L_.str1(%rip), %rsi
	xorl	%eax, %eax
	callq	_printf
	xorl	%eax, %eax
	.loc	1 14 1                  ## test1.c:14:1
	popq	%rbp
	retq
Ltmp4:
Lfunc_end0:
	.cfi_endproc

	.globl	_func1
	.align	4, 0x90
_func1:                                 ## @func1
Lfunc_begin1:
	.loc	1 16 0                  ## test1.c:16:0
	.cfi_startproc
## BB#0:                                ## %entry
	pushq	%rbp
Ltmp5:
	.cfi_def_cfa_offset 16
Ltmp6:
	.cfi_offset %rbp, -16
	movq	%rsp, %rbp
Ltmp7:
	.cfi_def_cfa_register %rbp
	.loc	1 17 2 prologue_end     ## test1.c:17:2
Ltmp8:
	subq	$16, %rsp
	movl	$11, -4(%rbp)
	.loc	1 18 2                  ## test1.c:18:2
	leaq	L_.str(%rip), %rdi
	leaq	L_.str2(%rip), %rsi
	xorl	%eax, %eax
	callq	_printf
	.loc	1 19 2                  ## test1.c:19:2
	movl	-4(%rbp), %edi
	callq	_func2
	.loc	1 20 1                  ## test1.c:20:1
	addq	$16, %rsp
	popq	%rbp
	retq
Ltmp9:
Lfunc_end1:
	.cfi_endproc

	.globl	_func2
	.align	4, 0x90
_func2:                                 ## @func2
Lfunc_begin2:
	.loc	1 22 0                  ## test1.c:22:0
	.cfi_startproc
## BB#0:                                ## %entry
	pushq	%rbp
Ltmp10:
	.cfi_def_cfa_offset 16
Ltmp11:
	.cfi_offset %rbp, -16
	movq	%rsp, %rbp
Ltmp12:
	.cfi_def_cfa_register %rbp
	subq	$16, %rsp
	movl	%edi, -4(%rbp)
	.loc	1 23 2 prologue_end     ## test1.c:23:2
Ltmp13:
	leaq	L_.str(%rip), %rdi
	leaq	L_.str3(%rip), %rsi
	xorl	%eax, %eax
	callq	_printf
	.loc	1 24 1                  ## test1.c:24:1
	addq	$16, %rsp
	popq	%rbp
	retq
Ltmp14:
Lfunc_end2:
	.cfi_endproc

	.globl	_func3
	.align	4, 0x90
_func3:                                 ## @func3
Lfunc_begin3:
	.loc	1 26 0                  ## test1.c:26:0
	.cfi_startproc
## BB#0:                                ## %entry
	pushq	%rbp
Ltmp15:
	.cfi_def_cfa_offset 16
Ltmp16:
	.cfi_offset %rbp, -16
	movq	%rsp, %rbp
Ltmp17:
	.cfi_def_cfa_register %rbp
	.loc	1 27 2 prologue_end     ## test1.c:27:2
Ltmp18:
	subq	$16, %rsp
	movl	$1, -4(%rbp)
	.loc	1 28 2                  ## test1.c:28:2
	leaq	L_.str(%rip), %rdi
	leaq	L_.str4(%rip), %rsi
	xorl	%eax, %eax
	callq	_printf
	.loc	1 29 2                  ## test1.c:29:2
	movl	-4(%rbp), %edi
	callq	_func2
	.loc	1 30 1                  ## test1.c:30:1
	addq	$16, %rsp
	popq	%rbp
	retq
Ltmp19:
Lfunc_end3:
	.cfi_endproc

	.globl	_func4
	.align	4, 0x90
_func4:                                 ## @func4
Lfunc_begin4:
	.loc	1 32 0                  ## test1.c:32:0
	.cfi_startproc
## BB#0:                                ## %entry
	pushq	%rbp
Ltmp20:
	.cfi_def_cfa_offset 16
Ltmp21:
	.cfi_offset %rbp, -16
	movq	%rsp, %rbp
Ltmp22:
	.cfi_def_cfa_register %rbp
	subq	$16, %rsp
	movl	%edi, -4(%rbp)
	.loc	1 33 2 prologue_end     ## test1.c:33:2
Ltmp23:
	leaq	L_.str(%rip), %rdi
	leaq	L_.str5(%rip), %rsi
	xorl	%eax, %eax
	callq	_printf
	.loc	1 34 1                  ## test1.c:34:1
	addq	$16, %rsp
	popq	%rbp
	retq
Ltmp24:
Lfunc_end4:
	.cfi_endproc

	.globl	_func5
	.align	4, 0x90
_func5:                                 ## @func5
Lfunc_begin5:
	.loc	1 36 0                  ## test1.c:36:0
	.cfi_startproc
## BB#0:                                ## %entry
	pushq	%rbp
Ltmp25:
	.cfi_def_cfa_offset 16
Ltmp26:
	.cfi_offset %rbp, -16
	movq	%rsp, %rbp
Ltmp27:
	.cfi_def_cfa_register %rbp
	.loc	1 37 2 prologue_end     ## test1.c:37:2
Ltmp28:
	subq	$16, %rsp
	movl	$2, -4(%rbp)
	movl	$3, -8(%rbp)
	.loc	1 38 2                  ## test1.c:38:2
	leaq	L_.str(%rip), %rdi
	leaq	L_.str6(%rip), %rsi
	xorl	%eax, %eax
	callq	_printf
	.loc	1 39 2                  ## test1.c:39:2
	movl	-4(%rbp), %edi
	callq	_func2
	.loc	1 40 2                  ## test1.c:40:2
	movl	-8(%rbp), %edi
	callq	_func4
	.loc	1 41 1                  ## test1.c:41:1
	addq	$16, %rsp
	popq	%rbp
	retq
Ltmp29:
Lfunc_end5:
	.cfi_endproc

	.section	__TEXT,__cstring,cstring_literals
L_.str:                                 ## @.str
	.asciz	"%s\n"

L_.str1:                                ## @.str1
	.asciz	"Main function is called by program. This is a test for -dot-callgraph pass in LLVM."

L_.str2:                                ## @.str2
	.asciz	"Function1 was callsed by program."

L_.str3:                                ## @.str3
	.asciz	"Function2 was called by program."

L_.str4:                                ## @.str4
	.asciz	"Function3 was called by program."

L_.str5:                                ## @.str5
	.asciz	"Function4 was called by program."

L_.str6:                                ## @.str6
	.asciz	"Function5 was called by program."

	.section	__TEXT,__text,regular,pure_instructions
Ldebug_end0: